; Function Attrs: mustprogress uwtable
define hidden void @_ZN11upolynomial12core_manager7factors14push_back_swapER7svectorI3mpzjEj(ptr noundef nonnull align 8 dereferenceable(48) %0, ptr noundef nonnull align 8 captures(none) dereferenceable(8) %1, i32 noundef %2) local_unnamed_addr #3 align 2 personality ptr @__gxx_personality_v0 {
  %4 = alloca %class.svector.1, align 8
  call void @llvm.lifetime.start.p0(i64 8, ptr nonnull %4) #25
  store ptr null, ptr %4, align 8, !tbaa !28
  %5 = load ptr, ptr %0, align 8, !tbaa !26
  %6 = icmp eq ptr %5, null
  br i1 %6, label %13, label %7

7:                                                ; preds = %3
  %8 = getelementptr inbounds i8, ptr %5, i64 -4
  %9 = load i32, ptr %8, align 4, !tbaa !27
  %10 = getelementptr inbounds i8, ptr %5, i64 -8
  %11 = load i32, ptr %10, align 4, !tbaa !27
  %12 = icmp eq i32 %9, %11
  br i1 %12, label %13, label %_ZN6vectorI3mpzLb0EjED2Ev.exit

13:                                               ; preds = %7, %3
  invoke void @_ZN6vectorI7svectorI3mpzjELb1EjE13expand_vectorEv(ptr noundef nonnull align 8 dereferenceable(8) %0)
          to label %.noexc unwind label %54

.noexc:                                           ; preds = %13
  %.pre.i = load ptr, ptr %0, align 8, !tbaa !26
  %.phi.trans.insert.i = getelementptr inbounds i8, ptr %.pre.i, i64 -4
  %.pre2.i = load i32, ptr %.phi.trans.insert.i, align 4, !tbaa !27
  br label %_ZN6vectorI3mpzLb0EjED2Ev.exit

_ZN6vectorI3mpzLb0EjED2Ev.exit:                   ; preds = %7, %.noexc
  %14 = phi i32 [ %.pre2.i, %.noexc ], [ %9, %7 ]
  %15 = phi ptr [ %.pre.i, %.noexc ], [ %5, %7 ]
  %16 = getelementptr inbounds i8, ptr %15, i64 -4
  %17 = zext i32 %14 to i64
  %18 = getelementptr inbounds nuw %class.svector.1, ptr %15, i64 %17
  store ptr null, ptr %18, align 8, !tbaa !38
  %19 = add i32 %14, 1
  store i32 %19, ptr %16, align 4, !tbaa !27
  call void @llvm.lifetime.end.p0(i64 8, ptr nonnull %4) #25
  %20 = getelementptr inbounds nuw i8, ptr %0, i64 8
  %21 = load ptr, ptr %20, align 8, !tbaa !25
  %22 = icmp eq ptr %21, null
  br i1 %22, label %_ZN6vectorIjLb0EjE9push_backERKj.exit, label %23

23:                                               ; preds = %_ZN6vectorI3mpzLb0EjED2Ev.exit
  %24 = getelementptr inbounds i8, ptr %21, i64 -4
  %25 = load i32, ptr %24, align 4, !tbaa !27
  %26 = getelementptr inbounds i8, ptr %21, i64 -8
  %27 = load i32, ptr %26, align 4, !tbaa !27
  %28 = icmp eq i32 %25, %27
  br i1 %28, label %_ZN6vectorIjLb0EjE9push_backERKj.exit, label %_ZN6vectorI7svectorI3mpzjELb1EjE4backEv.exit

_ZN6vectorIjLb0EjE9push_backERKj.exit:            ; preds = %_ZN6vectorI3mpzLb0EjED2Ev.exit, %23
  tail call void @_ZN6vectorIjLb0EjE13expand_vectorEv(ptr noundef nonnull align 8 dereferenceable(8) %20)
  %.pre.i4 = load ptr, ptr %20, align 8, !tbaa !25
  %.phi.trans.insert.i5 = getelementptr inbounds i8, ptr %.pre.i4, i64 -4
  %.pre2.i6 = load i32, ptr %.phi.trans.insert.i5, align 4, !tbaa !27
  %.pre = load ptr, ptr %0, align 8, !tbaa !26, !nonnull !17, !noundef !17
  br label %_ZN6vectorI7svectorI3mpzjELb1EjE4backEv.exit

_ZN6vectorI7svectorI3mpzjELb1EjE4backEv.exit:     ; preds = %23, %_ZN6vectorIjLb0EjE9push_backERKj.exit
  %.pre.i4.sink13 = phi ptr [ %.pre.i4, %_ZN6vectorIjLb0EjE9push_backERKj.exit ], [ %21, %23 ]
  %.pre2.i6.sink12 = phi i32 [ %.pre2.i6, %_ZN6vectorIjLb0EjE9push_backERKj.exit ], [ %25, %23 ]
  %29 = phi ptr [ %.pre, %_ZN6vectorIjLb0EjE9push_backERKj.exit ], [ %15, %23 ]
  %30 = getelementptr inbounds i8, ptr %.pre.i4.sink13, i64 -4
  %31 = zext i32 %.pre2.i6.sink12 to i64
  %32 = getelementptr inbounds nuw i32, ptr %.pre.i4.sink13, i64 %31
  store i32 %2, ptr %32, align 4, !tbaa !27
  %33 = add i32 %.pre2.i6.sink12, 1
  store i32 %33, ptr %30, align 4, !tbaa !27
  %34 = getelementptr inbounds i8, ptr %29, i64 -4
  %35 = load i32, ptr %34, align 4, !tbaa !27
  %36 = add i32 %35, -1
  %37 = zext i32 %36 to i64
  %38 = getelementptr inbounds nuw %class.svector.1, ptr %29, i64 %37
  %39 = load ptr, ptr %1, align 8, !tbaa !38
  %40 = load ptr, ptr %38, align 8, !tbaa !38
  store ptr %40, ptr %1, align 8, !tbaa !38
  store ptr %39, ptr %38, align 8, !tbaa !38
  %41 = getelementptr inbounds nuw i8, ptr %0, i64 40
  %42 = load i32, ptr %41, align 8, !tbaa !34
  %43 = add i32 %42, %2
  store i32 %43, ptr %41, align 8, !tbaa !34
  %44 = load ptr, ptr %1, align 8, !tbaa !28
  %45 = icmp eq ptr %44, null
  br i1 %45, label %_ZN11upolynomial12core_manager6degreeERK7svectorI3mpzjE.exit, label %46

46:                                               ; preds = %_ZN6vectorI7svectorI3mpzjELb1EjE4backEv.exit
  %47 = getelementptr inbounds i8, ptr %44, i64 -4
  %48 = load i32, ptr %47, align 4, !tbaa !27
  br label %_ZN11upolynomial12core_manager6degreeERK7svectorI3mpzjE.exit

_ZN11upolynomial12core_manager6degreeERK7svectorI3mpzjE.exit: ; preds = %_ZN6vectorI7svectorI3mpzjELb1EjE4backEv.exit, %46
  %.0.i.i7 = phi i32 [ %48, %46 ], [ 0, %_ZN6vectorI7svectorI3mpzjELb1EjE4backEv.exit ]
  %49 = tail call noundef i32 @llvm.usub.sat.i32(i32 %.0.i.i7, i32 1)
  %50 = mul i32 %49, %2
  %51 = getelementptr inbounds nuw i8, ptr %0, i64 44
  %52 = load i32, ptr %51, align 4, !tbaa !35
  %53 = add i32 %50, %52
  store i32 %53, ptr %51, align 4, !tbaa !35
  ret void

54:                                               ; preds = %13
  %55 = landingpad { ptr, i32 }
          cleanup
  call void @_ZN6vectorI3mpzLb0EjED2Ev(ptr noundef nonnull align 8 dereferenceable(8) %4) #25
  call void @llvm.lifetime.end.p0(i64 8, ptr nonnull %4) #25
  resume { ptr, i32 } %55
}